; Function Attrs: nounwind uwtable
define void @duckdb_je_tcaches_flush(ptr noundef %0, i32 noundef %1) local_unnamed_addr #0 {
  %3 = tail call i32 @pthread_mutex_trylock(ptr noundef nonnull getelementptr inbounds nuw (i8, ptr @tcaches_mtx, i64 72)) #16
  %.not.i = icmp eq i32 %3, 0
  br i1 %.not.i, label %5, label %4

4:                                                ; preds = %2
  tail call void @duckdb_je_malloc_mutex_lock_slow(ptr noundef nonnull @tcaches_mtx) #16
  store atomic i8 1, ptr getelementptr inbounds nuw (i8, ptr @tcaches_mtx, i64 64) monotonic, align 8
  br label %5

5:                                                ; preds = %4, %2
  %6 = load i64, ptr getelementptr inbounds nuw (i8, ptr @tcaches_mtx, i64 56), align 8, !tbaa !50
  %7 = add i64 %6, 1
  store i64 %7, ptr getelementptr inbounds nuw (i8, ptr @tcaches_mtx, i64 56), align 8, !tbaa !50
  %8 = load ptr, ptr getelementptr inbounds nuw (i8, ptr @tcaches_mtx, i64 48), align 8, !tbaa !55
  %.not.i.i = icmp eq ptr %8, %0
  br i1 %.not.i.i, label %malloc_mutex_lock.exit, label %9

9:                                                ; preds = %5
  store ptr %0, ptr getelementptr inbounds nuw (i8, ptr @tcaches_mtx, i64 48), align 8, !tbaa !55
  %10 = load i64, ptr getelementptr inbounds nuw (i8, ptr @tcaches_mtx, i64 40), align 8, !tbaa !60
  %11 = add i64 %10, 1
  store i64 %11, ptr getelementptr inbounds nuw (i8, ptr @tcaches_mtx, i64 40), align 8, !tbaa !60
  br label %malloc_mutex_lock.exit

malloc_mutex_lock.exit:                           ; preds = %5, %9
  %12 = load ptr, ptr @duckdb_je_tcaches, align 8, !tbaa !174
  %13 = zext i32 %1 to i64
  %14 = getelementptr inbounds nuw %struct.tcaches_s, ptr %12, i64 %13
  %15 = load ptr, ptr %14, align 8, !tbaa !39
  %16 = icmp eq ptr %15, null
  br i1 %16, label %tcaches_elm_remove.exit.thread, label %17

17:                                               ; preds = %malloc_mutex_lock.exit
  store ptr inttoptr (i64 1 to ptr), ptr %14, align 8, !tbaa !39
  %18 = icmp eq ptr %15, inttoptr (i64 1 to ptr)
  br i1 %18, label %tcaches_elm_remove.exit.thread, label %tcaches_elm_remove.exit

tcaches_elm_remove.exit.thread:                   ; preds = %malloc_mutex_lock.exit, %17
  store atomic i8 0, ptr getelementptr inbounds nuw (i8, ptr @tcaches_mtx, i64 64) monotonic, align 8
  %19 = tail call i32 @pthread_mutex_unlock(ptr noundef nonnull getelementptr inbounds nuw (i8, ptr @tcaches_mtx, i64 72)) #16
  br label %21

tcaches_elm_remove.exit:                          ; preds = %17
  store atomic i8 0, ptr getelementptr inbounds nuw (i8, ptr @tcaches_mtx, i64 64) monotonic, align 8
  %20 = tail call i32 @pthread_mutex_unlock(ptr noundef nonnull getelementptr inbounds nuw (i8, ptr @tcaches_mtx, i64 72)) #16
  tail call fastcc void @tcache_destroy(ptr noundef %0, ptr noundef nonnull %15, i1 noundef zeroext false)
  br label %21

21:                                               ; preds = %tcaches_elm_remove.exit.thread, %tcaches_elm_remove.exit
  ret void
}